Certificate:
    Data:
        Version: 3 (0x2)
        Serial Number:
            7f:e5:dc:6d:72:f5:a3:40:75:92:8a:86:c7:29:9f:20
        Signature Algorithm: sha256WithRSAEncryption
        Issuer: C=US, ST=CA, O=Comp 429, CN=Root CA
        Validity
            Not Before: May 13 04:20:05 2021 GMT
            Not After : Jun 12 04:20:05 2021 GMT
        Subject: C=US, ST=CA, O=Comp 429, CN=OCSP Root Responder
        Subject Public Key Info:
            Public Key Algorithm: rsaEncryption
                RSA Public-Key: (2048 bit)
                Modulus:
                    00:a0:0a:e9:d0:de:6a:d6:df:4f:4c:4b:e0:a2:5c:
                    50:11:c3:0d:96:89:98:79:84:cf:1a:5f:9f:8b:78:
                    9c:3a:75:04:19:55:88:25:c2:85:0c:db:eb:74:0b:
                    bc:b0:c0:8a:7b:22:23:66:23:5d:f4:46:9b:90:e8:
                    4b:87:08:35:fe:9e:37:63:46:7d:6e:63:17:2a:e6:
                    86:ad:29:b9:d9:a1:f6:c3:4d:0c:2c:7c:38:21:a1:
                    e5:d3:35:c6:46:51:3c:e4:30:4b:12:2e:d0:e3:17:
                    91:75:9e:fa:3b:03:89:80:c9:ed:62:86:23:17:23:
                    26:70:4e:ac:39:07:19:3a:a5:21:82:0e:90:fe:79:
                    34:77:2c:3e:1d:7e:60:ce:68:33:c2:07:3b:25:24:
                    5e:ef:e3:ff:bb:11:6a:51:df:a6:19:96:11:4f:37:
                    26:08:55:1f:f6:eb:00:41:6d:c4:65:37:fc:01:8d:
                    bc:9c:5f:14:c4:65:75:d9:b7:16:aa:2e:fe:91:64:
                    e9:10:53:26:3a:16:22:6c:6d:46:6f:f4:12:c0:c0:
                    8f:5b:21:15:75:f0:d6:91:49:cd:66:59:3f:dd:ca:
                    45:e3:b0:04:99:b7:11:72:be:f3:9f:e8:05:5b:67:
                    51:6b:35:ad:bb:55:80:dc:64:37:55:0b:99:ef:1a:
                    74:bb
                Exponent: 65537 (0x10001)
        X509v3 extensions:
            X509v3 Authority Key Identifier: 
                keyid:3F:13:B6:E9:1C:C2:D2:06:8C:AB:14:81:EB:02:13:2F:14:66:02:38

            X509v3 Basic Constraints: critical
                CA:FALSE
            X509v3 Extended Key Usage: 
                OCSP Signing
            OCSP No Check: 

            X509v3 Key Usage: critical
                Digital Signature
            X509v3 Subject Key Identifier: 
                20:96:41:C9:C2:E8:9C:15:E4:D6:30:61:3F:4B:C2:BB:7C:E3:38:02
    Signature Algorithm: sha256WithRSAEncryption
         25:f4:7c:88:1e:73:0c:95:27:4e:03:62:fc:86:d1:3f:e4:b3:
         5c:b2:f4:0e:1b:84:65:d0:7b:57:9b:7e:9d:20:46:f1:70:40:
         c6:21:c8:4a:8f:ee:4a:b4:26:74:4e:06:25:38:c6:80:eb:0b:
         9e:87:79:b7:2b:b5:4c:d7:51:df:92:39:0d:46:59:c2:90:81:
         a7:dc:ef:e4:a8:82:05:27:c9:ca:b6:d7:d1:71:9f:19:7c:7f:
         63:93:89:51:f5:db:39:bb:1c:6b:78:c5:2f:7e:ac:d0:09:1f:
         61:3e:a9:22:24:a9:db:4c:72:5f:21:87:b6:33:9a:ea:1c:b1:
         85:5e:52:62:ae:b2:ed:05:7d:d0:6c:b3:91:eb:ba:da:55:0b:
         96:e9:e7:ff:9b:d2:80:1b:29:ba:26:d1:0e:a9:af:57:5e:0c:
         a8:0d:15:65:4a:86:a2:33:c7:61:39:a0:31:84:91:aa:26:a5:
         fa:28:97:80:13:15:34:86:4f:9a:80:85:62:02:03:56:fe:0f:
         6b:6a:c3:2d:c9:d7:ca:df:32:a6:d1:9c:ea:30:e5:6e:1c:de:
         4b:a2:4c:2f:36:70:1e:89:0a:41:c9:1a:02:e5:5c:33:02:1c:
         22:02:7f:de:4f:a7:90:29:92:e7:1d:47:5b:79:64:e4:f9:44:
         32:45:a7:00:39:12:d8:4b:09:88:7d:72:39:be:d3:26:59:da:
         ac:c0:91:fe:60:a3:e2:ac:71:b0:0c:96:ef:3b:b0:47:0f:91:
         2b:43:9a:17:87:fa:73:93:88:08:14:ed:8f:12:d6:d4:d6:a9:
         4d:e2:0d:8a:69:56:45:5a:16:37:23:61:b0:97:e6:83:17:65:
         8b:d0:66:2d:3a:16:3c:c8:0a:37:01:61:83:85:a9:be:57:1b:
         c7:8f:aa:d4:f2:62:cd:f9:c0:79:88:96:c4:49:20:49:76:c0:
         87:47:a1:be:3c:93:83:18:79:f7:6f:a3:16:ce:1a:27:3d:03:
         eb:82:42:56:ed:8e:01:3b:c1:a0:60:1c:31:46:60:4c:91:ee:
         0a:ed:8e:fe:18:2d:af:d2:b2:15:0c:f2:af:56:b2:76:53:cd:
         d1:34:0e:58:63:8c:0e:c6:d7:6b:ac:55:09:a8:44:76:3c:b5:
         60:f1:ba:6a:7e:19:fa:33:84:cd:29:97:94:25:82:33:e7:43:
         b6:35:1d:8f:4b:bd:82:e4:ca:a2:1f:48:93:0e:cc:71:e6:73:
         b4:28:9d:e9:50:b8:80:9f:b9:35:eb:a8:82:a9:04:c0:bb:b6:
         f8:d9:50:3c:0c:3d:35:bc:1f:18:36:4f:7f:f3:8c:40:f4:21:
         06:bb:05:10:52:a4:cf:48
-----BEGIN CERTIFICATE-----
MIIEnDCCAoSgAwIBAgIQf+XcbXL1o0B1koqGxymfIDANBgkqhkiG9w0BAQsFADA/
MQswCQYDVQQGEwJVUzELMAkGA1UECAwCQ0ExETAPBgNVBAoMCENvbXAgNDI5MRAw
DgYDVQQDDAdSb290IENBMB4XDTIxMDUxMzA0MjAwNVoXDTIxMDYxMjA0MjAwNVow
SzELMAkGA1UEBhMCVVMxCzAJBgNVBAgMAkNBMREwDwYDVQQKDAhDb21wIDQyOTEc
MBoGA1UEAwwTT0NTUCBSb290IFJlc3BvbmRlcjCCASIwDQYJKoZIhvcNAQEBBQAD
ggEPADCCAQoCggEBAKAK6dDeatbfT0xL4KJcUBHDDZaJmHmEzxpfn4t4nDp1BBlV
iCXChQzb63QLvLDAinsiI2YjXfRGm5DoS4cINf6eN2NGfW5jFyrmhq0pudmh9sNN
DCx8OCGh5dM1xkZRPOQwSxIu0OMXkXWe+jsDiYDJ7WKGIxcjJnBOrDkHGTqlIYIO
kP55NHcsPh1+YM5oM8IHOyUkXu/j/7sRalHfphmWEU83JghVH/brAEFtxGU3/AGN
vJxfFMRlddm3Fqou/pFk6RBTJjoWImxtRm/0EsDAj1shFXXw1pFJzWZZP93KReOw
BJm3EXK+85/oBVtnUWs1rbtVgNxkN1ULme8adLsCAwEAAaOBhzCBhDAfBgNVHSME
GDAWgBQ/E7bpHMLSBoyrFIHrAhMvFGYCODAMBgNVHRMBAf8EAjAAMBMGA1UdJQQM
MAoGCCsGAQUFBwMJMA8GCSsGAQUFBzABBQQCBQAwDgYDVR0PAQH/BAQDAgeAMB0G
A1UdDgQWBBQglkHJwuicFeTWMGE/S8K7fOM4AjANBgkqhkiG9w0BAQsFAAOCAgEA
JfR8iB5zDJUnTgNi/IbRP+SzXLL0DhuEZdB7V5t+nSBG8XBAxiHISo/uSrQmdE4G
JTjGgOsLnod5tyu1TNdR35I5DUZZwpCBp9zv5KiCBSfJyrbX0XGfGXx/Y5OJUfXb
Obsca3jFL36s0AkfYT6pIiSp20xyXyGHtjOa6hyxhV5SYq6y7QV90Gyzkeu62lUL
lunn/5vSgBspuibRDqmvV14MqA0VZUqGojPHYTmgMYSRqial+iiXgBMVNIZPmoCF
YgIDVv4Pa2rDLcnXyt8yptGc6jDlbhzeS6JMLzZwHokKQckaAuVcMwIcIgJ/3k+n
kCmS5x1HW3lk5PlEMkWnADkS2EsJiH1yOb7TJlnarMCR/mCj4qxxsAyW7zuwRw+R
K0OaF4f6c5OICBTtjxLW1NapTeINimlWRVoWNyNhsJfmgxdli9BmLToWPMgKNwFh
g4Wpvlcbx4+q1PJizfnAeYiWxEkgSXbAh0ehvjyTgxh592+jFs4aJz0D64JCVu2O
ATvBoGAcMUZgTJHuCu2O/hgtr9KyFQzyr1aydlPN0TQOWGOMDsbXa6xVCahEdjy1
YPG6an4Z+jOEzSmXlCWCM+dDtjUdj0u9guTKoh9Ikw7MceZztCid6VC4gJ+5Neuo
gqkEwLu2+NlQPAw9NbwfGDZPf/OMQPQhBrsFEFKkz0g=
-----END CERTIFICATE-----
