Certificate:
    Data:
        Version: 3 (0x2)
        Serial Number:
            7f:e5:dc:6d:72:f5:a3:40:75:92:8a:86:c7:29:9f:1f
        Signature Algorithm: sha256WithRSAEncryption
        Issuer: C=US, ST=CA, O=Comp 429, CN=Root CA
        Validity
            Not Before: May 13 04:13:56 2021 GMT
            Not After : May 11 04:13:56 2031 GMT
        Subject: C=US, ST=CA, O=Comp 429, CN=Root CA
        Subject Public Key Info:
            Public Key Algorithm: rsaEncryption
                RSA Public-Key: (4096 bit)
                Modulus:
                    00:c0:c3:c4:07:0b:a0:e3:56:7c:0d:ad:33:f5:5d:
                    0f:58:10:29:1d:80:83:2e:f3:21:19:f9:db:27:75:
                    be:d1:7e:b2:c7:a6:b8:6d:39:20:d2:c7:cb:cc:3f:
                    7c:33:69:74:3d:0a:be:75:7c:a9:95:05:0f:b2:54:
                    a9:68:02:bf:95:3b:62:a1:1c:75:0d:aa:23:22:be:
                    2b:24:1e:29:1c:be:ee:9c:1a:99:bb:8f:46:ef:db:
                    70:01:ec:20:36:3e:b7:2c:2a:29:5c:1c:ca:79:44:
                    0f:c6:dc:d9:9b:ac:6c:44:84:ef:33:d8:09:10:e4:
                    20:0e:35:1d:26:97:c9:c1:94:a3:c0:ff:2d:41:76:
                    78:b2:6f:dc:78:a4:6a:e6:30:3e:25:b1:54:b6:ea:
                    bb:f8:50:9c:a7:7a:f0:7f:57:73:a9:8a:05:b2:9e:
                    33:59:82:47:21:dd:00:e0:62:6c:23:67:56:5f:91:
                    bc:e7:d5:9a:5c:76:73:3c:3d:d0:6c:37:ad:89:55:
                    d4:88:15:6a:c8:de:be:60:0a:2f:5d:a7:6b:a2:f5:
                    0f:4b:01:bd:5a:48:46:a5:04:41:af:21:90:5a:d3:
                    60:ef:51:d5:1e:c7:da:95:d9:5d:a2:03:7f:fa:a2:
                    f6:3f:4f:b5:cc:0b:84:ce:35:a2:e4:f2:1d:de:e9:
                    d3:4f:1f:3e:4d:c3:56:e5:d1:ff:86:46:20:53:77:
                    35:c3:1b:d9:cb:b5:3d:16:40:4c:aa:48:c4:11:62:
                    54:2a:60:2c:cf:61:9d:df:31:ed:74:f7:6e:92:a9:
                    2c:6a:eb:6d:13:cc:e3:b6:fe:e1:20:a8:b4:fb:ef:
                    e4:41:3b:2b:00:5d:6d:4f:42:0f:52:c4:c3:f5:f9:
                    dd:da:59:58:ae:f6:99:60:a4:7e:22:0e:7d:5e:b6:
                    1a:1b:d0:c8:7a:a1:25:ce:05:a8:a2:4b:83:82:80:
                    9e:12:71:f2:ba:2f:7c:cc:ba:85:7d:21:7d:3c:10:
                    3a:19:4f:ae:a0:2b:9e:e3:86:66:0e:21:a8:4a:f4:
                    0c:78:27:d3:82:0d:de:5e:17:a5:0b:d5:47:b8:de:
                    c1:0c:26:38:e7:4d:ee:d9:7e:ed:6e:36:1a:b8:62:
                    eb:0f:2f:bc:de:c8:99:51:45:07:e8:5e:9d:43:b4:
                    b4:ee:43:df:09:e6:d9:10:33:6d:0d:1f:0c:b6:4b:
                    4e:53:dd:aa:c7:44:70:c4:d0:96:7c:d1:6c:af:27:
                    2d:c2:15:67:6f:78:7c:a0:68:06:1b:15:67:0e:a2:
                    a4:a0:25:71:a4:8e:84:70:13:48:cb:4a:97:11:cb:
                    c9:9e:ad:83:aa:fe:db:a5:52:08:b8:4d:3d:4d:0c:
                    ff:4a:23
                Exponent: 65537 (0x10001)
        X509v3 extensions:
            X509v3 Basic Constraints: critical
                CA:TRUE
            X509v3 Key Usage: critical
                Certificate Sign, CRL Sign
            X509v3 Subject Key Identifier: 
                3F:13:B6:E9:1C:C2:D2:06:8C:AB:14:81:EB:02:13:2F:14:66:02:38
    Signature Algorithm: sha256WithRSAEncryption
         0b:89:19:13:a4:6e:88:02:c8:25:e5:f6:07:0c:65:df:7d:06:
         14:1d:54:a3:74:b9:b3:08:28:4d:54:05:94:d1:aa:ae:39:41:
         be:2d:25:c9:22:08:d8:b8:09:4f:10:b0:52:4e:30:df:82:92:
         83:38:06:b7:e3:be:f8:dd:93:c2:90:96:20:e2:e8:aa:6d:71:
         08:95:02:45:7f:fd:5e:37:8e:e4:f2:b7:e5:0a:a4:8b:49:b7:
         6e:83:e9:4e:a4:db:a4:22:e1:37:19:ce:21:87:18:b1:4a:01:
         2d:18:e1:81:fd:85:44:d6:d8:30:8c:f2:59:89:03:45:6f:c1:
         83:d6:1e:3f:97:f0:d9:e1:f1:10:5b:c7:af:01:29:f8:c5:f4:
         22:01:52:c9:01:49:74:7b:6b:f8:ca:e2:94:2c:d9:d5:d9:61:
         7e:2e:75:c1:e8:63:da:dc:8b:e1:27:6c:aa:fd:4e:b0:71:76:
         9c:7e:1e:bc:2a:04:30:1a:1e:6c:31:e1:86:25:30:e9:4b:41:
         61:f5:15:ab:55:33:b8:9c:e8:0d:60:26:c7:54:95:19:45:5b:
         12:f5:0c:bf:8c:a6:fd:38:ad:a9:6e:0f:be:75:f0:aa:b6:c0:
         0a:78:1d:15:6d:3f:69:cc:ea:81:ed:ad:46:f7:e7:b4:64:da:
         69:29:18:b3:f5:0f:78:ab:cf:42:19:62:67:3f:60:86:3a:7f:
         75:da:c3:9f:8f:89:5e:99:e3:85:57:f0:49:ae:31:9b:06:b3:
         53:1b:43:4e:1c:aa:ac:53:af:0e:ff:96:41:0f:85:d0:b7:c9:
         08:d1:65:61:46:cd:0b:e4:2b:b4:17:de:e8:ec:08:8c:b0:e2:
         57:3b:12:d0:8e:2b:87:8c:a7:58:9d:53:fc:33:56:da:7e:7f:
         de:29:26:53:08:a3:a9:c9:3b:50:29:5a:0d:52:b9:07:32:f1:
         87:3a:76:18:ab:63:3c:f9:57:4e:64:20:4a:e9:fc:98:52:71:
         34:f1:10:23:d1:76:22:ec:74:6b:d4:ee:63:2b:45:19:db:a4:
         f2:66:8a:ba:ef:ee:38:4a:83:d3:92:f7:86:a5:c7:87:b7:3a:
         cf:5f:76:7e:5e:d3:91:32:30:2b:03:2b:a7:d0:95:9e:d8:ce:
         ca:10:fd:19:18:6b:ef:60:d7:e6:9e:c3:4b:8e:76:ca:c5:4b:
         36:76:10:ec:15:d6:1d:71:34:f6:a3:fa:b9:63:c5:04:c8:ca:
         49:9e:d6:41:a2:32:d0:10:12:c5:b5:a9:9f:4c:d8:42:5d:7a:
         80:cd:a1:3a:d7:92:3e:1d:99:a6:b1:61:36:1a:9a:d1:2f:25:
         aa:9e:b7:9f:2c:ee:7b:cf
-----BEGIN CERTIFICATE-----
MIIFSjCCAzKgAwIBAgIQf+XcbXL1o0B1koqGxymfHzANBgkqhkiG9w0BAQsFADA/
MQswCQYDVQQGEwJVUzELMAkGA1UECAwCQ0ExETAPBgNVBAoMCENvbXAgNDI5MRAw
DgYDVQQDDAdSb290IENBMB4XDTIxMDUxMzA0MTM1NloXDTMxMDUxMTA0MTM1Nlow
PzELMAkGA1UEBhMCVVMxCzAJBgNVBAgMAkNBMREwDwYDVQQKDAhDb21wIDQyOTEQ
MA4GA1UEAwwHUm9vdCBDQTCCAiIwDQYJKoZIhvcNAQEBBQADggIPADCCAgoCggIB
AMDDxAcLoONWfA2tM/VdD1gQKR2Agy7zIRn52yd1vtF+ssemuG05INLHy8w/fDNp
dD0KvnV8qZUFD7JUqWgCv5U7YqEcdQ2qIyK+KyQeKRy+7pwambuPRu/bcAHsIDY+
tywqKVwcynlED8bc2ZusbESE7zPYCRDkIA41HSaXycGUo8D/LUF2eLJv3HikauYw
PiWxVLbqu/hQnKd68H9Xc6mKBbKeM1mCRyHdAOBibCNnVl+RvOfVmlx2czw90Gw3
rYlV1IgVasjevmAKL12na6L1D0sBvVpIRqUEQa8hkFrTYO9R1R7H2pXZXaIDf/qi
9j9PtcwLhM41ouTyHd7p008fPk3DVuXR/4ZGIFN3NcMb2cu1PRZATKpIxBFiVCpg
LM9hnd8x7XT3bpKpLGrrbRPM47b+4SCotPvv5EE7KwBdbU9CD1LEw/X53dpZWK72
mWCkfiIOfV62GhvQyHqhJc4FqKJLg4KAnhJx8rovfMy6hX0hfTwQOhlPrqArnuOG
Zg4hqEr0DHgn04IN3l4XpQvVR7jewQwmOOdN7tl+7W42Grhi6w8vvN7ImVFFB+he
nUO0tO5D3wnm2RAzbQ0fDLZLTlPdqsdEcMTQlnzRbK8nLcIVZ294fKBoBhsVZw6i
pKAlcaSOhHATSMtKlxHLyZ6tg6r+26VSCLhNPU0M/0ojAgMBAAGjQjBAMA8GA1Ud
EwEB/wQFMAMBAf8wDgYDVR0PAQH/BAQDAgEGMB0GA1UdDgQWBBQ/E7bpHMLSBoyr
FIHrAhMvFGYCODANBgkqhkiG9w0BAQsFAAOCAgEAC4kZE6RuiALIJeX2Bwxl330G
FB1Uo3S5swgoTVQFlNGqrjlBvi0lySII2LgJTxCwUk4w34KSgzgGt+O++N2TwpCW
IOLoqm1xCJUCRX/9XjeO5PK35Qqki0m3boPpTqTbpCLhNxnOIYcYsUoBLRjhgf2F
RNbYMIzyWYkDRW/Bg9YeP5fw2eHxEFvHrwEp+MX0IgFSyQFJdHtr+MrilCzZ1dlh
fi51wehj2tyL4Sdsqv1OsHF2nH4evCoEMBoebDHhhiUw6UtBYfUVq1UzuJzoDWAm
x1SVGUVbEvUMv4ym/TitqW4PvnXwqrbACngdFW0/aczqge2tRvfntGTaaSkYs/UP
eKvPQhliZz9ghjp/ddrDn4+JXpnjhVfwSa4xmwazUxtDThyqrFOvDv+WQQ+F0LfJ
CNFlYUbNC+QrtBfe6OwIjLDiVzsS0I4rh4ynWJ1T/DNW2n5/3ikmUwijqck7UCla
DVK5BzLxhzp2GKtjPPlXTmQgSun8mFJxNPEQI9F2Iux0a9TuYytFGduk8maKuu/u
OEqD05L3hqXHh7c6z192fl7TkTIwKwMrp9CVntjOyhD9GRhr72DX5p7DS452ysVL
NnYQ7BXWHXE09qP6uWPFBMjKSZ7WQaIy0BASxbWpn0zYQl16gM2hOteSPh2ZprFh
Nhqa0S8lqp63nyzue88=
-----END CERTIFICATE-----
