Certificate:
    Data:
        Version: 3 (0x2)
        Serial Number:
            7f:e5:dc:6d:72:f5:a3:40:75:92:8a:86:c7:29:9f:21
        Signature Algorithm: sha256WithRSAEncryption
        Issuer: C=US, ST=CA, O=Comp 429, CN=Root CA
        Validity
            Not Before: May 13 04:40:07 2021 GMT
            Not After : May 11 04:40:07 2031 GMT
        Subject: C=US, ST=California, O=Comp 429, OU=Comp 429, CN=Jericho Perdon
        Subject Public Key Info:
            Public Key Algorithm: rsaEncryption
                RSA Public-Key: (2048 bit)
                Modulus:
                    00:f1:b9:55:98:b0:d9:d3:d7:27:bd:93:ab:bb:aa:
                    54:28:d1:4a:06:dd:fc:d3:5a:4d:d3:45:12:86:87:
                    d0:01:01:56:8c:1c:9a:07:0f:4f:ad:1f:e5:6a:dd:
                    5a:87:e9:d6:45:33:97:5b:16:bf:3f:ee:b6:48:04:
                    0f:53:03:21:ed:e3:d6:29:64:d7:1c:13:a4:7f:6d:
                    8a:1c:24:fd:21:1e:72:53:8a:c1:d5:fa:4d:ed:a0:
                    de:c5:43:c8:6c:43:b1:b4:c7:c1:52:16:09:6c:5d:
                    ea:22:5d:05:4f:d1:58:74:7e:04:f2:86:4f:54:79:
                    b5:ea:30:df:08:d6:c9:cf:58:97:03:b2:ab:a9:1e:
                    be:22:00:c9:c6:17:28:b5:a0:ad:2d:c0:b2:81:f7:
                    ec:b4:72:71:f8:93:2b:e1:2d:fd:a7:c7:36:53:a2:
                    6b:cc:12:33:18:8e:51:6e:c7:ec:60:d6:3a:1e:cc:
                    32:1f:fe:a8:e2:f6:d9:37:43:d2:5b:b9:bc:3d:e8:
                    80:2b:dd:5f:e2:a9:9a:87:a3:5a:79:2e:a8:dd:31:
                    6d:37:be:ea:0e:fd:8d:b6:bf:9b:51:db:36:0f:85:
                    31:9d:94:a9:24:a3:16:99:e2:d8:47:ef:fe:32:85:
                    d2:49:b2:50:1e:72:90:47:6e:e8:29:fe:7c:bc:66:
                    ec:01
                Exponent: 65537 (0x10001)
        X509v3 extensions:
            Authority Information Access: 
                CA Issuers - URI:http://root-ca.home/root-ca.crt
                OCSP - URI:http://ocsp.root-ca.home:9080

            X509v3 Authority Key Identifier: 
                keyid:3F:13:B6:E9:1C:C2:D2:06:8C:AB:14:81:EB:02:13:2F:14:66:02:38

            X509v3 Basic Constraints: critical
                CA:FALSE
            X509v3 CRL Distribution Points: 

                Full Name:
                  URI:http://root-ca.home/root-ca.crl

            X509v3 Extended Key Usage: 
                TLS Web Client Authentication, TLS Web Server Authentication
            X509v3 Key Usage: critical
                Digital Signature, Key Encipherment
            X509v3 Subject Key Identifier: 
                EC:CE:E6:7A:CA:BB:74:53:FC:01:DF:56:2B:05:38:EA:E9:39:12:B0
    Signature Algorithm: sha256WithRSAEncryption
         85:5b:be:77:3c:a6:91:36:10:a2:25:00:be:bc:3c:9f:27:94:
         47:82:20:ba:40:54:43:b4:ae:f7:1a:1d:39:8d:cd:14:2e:40:
         ce:6d:5a:3c:0d:35:19:bf:c6:71:a6:eb:d7:3d:5c:55:06:de:
         9a:27:b7:02:29:62:a8:49:0b:7b:61:e0:84:29:e1:d7:f2:ad:
         16:6c:9a:43:74:23:d2:01:96:3b:be:7f:18:87:1f:ca:31:ed:
         f8:24:d4:19:cc:70:9c:36:b5:4c:9e:cc:fb:f3:3c:b7:56:29:
         80:c6:c6:93:2f:fb:2d:69:e0:7f:27:fa:2a:d9:d1:75:5d:df:
         ff:9d:b8:69:ab:9c:ee:1d:6b:04:2b:66:4d:71:99:19:4e:89:
         c8:50:1c:1f:13:1d:1c:a8:20:23:cc:a3:ba:bb:2b:a9:2d:da:
         16:0b:10:70:bf:8b:87:a3:cc:d9:ab:a0:25:97:22:ee:d9:7d:
         f2:c6:c4:c6:8a:2e:8d:6d:78:5c:42:dd:a4:96:98:57:ca:a5:
         cf:76:58:36:9a:e0:15:db:f3:93:7c:29:fe:47:c5:0f:e7:7d:
         ea:47:76:cd:7b:6c:c6:c8:35:69:82:9e:52:8e:fc:d2:e8:df:
         a4:e1:92:dc:1e:7c:eb:5f:53:45:38:43:c5:49:7b:d5:02:6d:
         79:36:7e:8d:2e:a2:d0:3e:56:15:55:3f:bd:43:79:41:eb:5d:
         cc:f4:84:33:e6:b8:1f:ae:26:ba:d8:1e:2f:d7:70:85:73:3f:
         87:f9:71:af:66:fd:06:89:30:0e:bd:d7:8f:70:75:c2:1d:47:
         38:d8:ad:fa:77:2c:fb:74:79:7f:2c:51:ea:8f:c3:91:b3:c8:
         17:c8:07:06:d2:4c:21:b2:67:57:d5:4e:9c:fb:51:24:58:93:
         63:0c:da:03:ef:a6:63:63:1f:74:33:8c:9b:0e:10:a2:80:81:
         e1:b0:6b:72:a4:ca:3a:e0:3e:23:70:38:c9:29:35:a8:33:0d:
         81:28:f8:15:ca:3e:b6:33:53:f0:72:53:2a:58:de:41:f3:32:
         02:69:da:d3:ee:15:60:df:4f:02:3e:2c:18:99:d7:6b:f8:18:
         10:32:e2:27:fe:90:80:a9:d5:5f:58:7c:a6:e8:ba:df:7c:cb:
         13:0c:22:33:f0:74:25:87:ee:ea:3a:85:71:6d:17:cb:73:37:
         f1:39:92:b6:f7:4a:c2:f6:0c:54:4c:44:0b:9c:72:41:09:2b:
         10:c3:ac:6f:fe:c0:30:4c:63:50:28:de:2f:86:e8:c2:46:b6:
         c0:28:6e:b8:95:6a:61:f5:f4:7b:69:19:25:9f:c1:72:81:05:
         e4:52:5e:7d:db:9c:bd:38
-----BEGIN CERTIFICATE-----
MIIFRzCCAy+gAwIBAgIQf+XcbXL1o0B1koqGxymfITANBgkqhkiG9w0BAQsFADA/
MQswCQYDVQQGEwJVUzELMAkGA1UECAwCQ0ExETAPBgNVBAoMCENvbXAgNDI5MRAw
DgYDVQQDDAdSb290IENBMB4XDTIxMDUxMzA0NDAwN1oXDTMxMDUxMTA0NDAwN1ow
YTELMAkGA1UEBhMCVVMxEzARBgNVBAgMCkNhbGlmb3JuaWExETAPBgNVBAoMCENv
bXAgNDI5MREwDwYDVQQLDAhDb21wIDQyOTEXMBUGA1UEAwwOSmVyaWNobyBQZXJk
b24wggEiMA0GCSqGSIb3DQEBAQUAA4IBDwAwggEKAoIBAQDxuVWYsNnT1ye9k6u7
qlQo0UoG3fzTWk3TRRKGh9ABAVaMHJoHD0+tH+Vq3VqH6dZFM5dbFr8/7rZIBA9T
AyHt49YpZNccE6R/bYocJP0hHnJTisHV+k3toN7FQ8hsQ7G0x8FSFglsXeoiXQVP
0Vh0fgTyhk9UebXqMN8I1snPWJcDsqupHr4iAMnGFyi1oK0twLKB9+y0cnH4kyvh
Lf2nxzZTomvMEjMYjlFux+xg1joezDIf/qji9tk3Q9Jbubw96IAr3V/iqZqHo1p5
LqjdMW03vuoO/Y22v5tR2zYPhTGdlKkkoxaZ4thH7/4yhdJJslAecpBHbugp/ny8
ZuwBAgMBAAGjggEbMIIBFzBmBggrBgEFBQcBAQRaMFgwKwYIKwYBBQUHMAKGH2h0
dHA6Ly9yb290LWNhLmhvbWUvcm9vdC1jYS5jcnQwKQYIKwYBBQUHMAGGHWh0dHA6
Ly9vY3NwLnJvb3QtY2EuaG9tZTo5MDgwMB8GA1UdIwQYMBaAFD8TtukcwtIGjKsU
gesCEy8UZgI4MAwGA1UdEwEB/wQCMAAwMAYDVR0fBCkwJzAloCOgIYYfaHR0cDov
L3Jvb3QtY2EuaG9tZS9yb290LWNhLmNybDAdBgNVHSUEFjAUBggrBgEFBQcDAgYI
KwYBBQUHAwEwDgYDVR0PAQH/BAQDAgWgMB0GA1UdDgQWBBTszuZ6yrt0U/wB31Yr
BTjq6TkSsDANBgkqhkiG9w0BAQsFAAOCAgEAhVu+dzymkTYQoiUAvrw8nyeUR4Ig
ukBUQ7Su9xodOY3NFC5Azm1aPA01Gb/Gcabr1z1cVQbemie3AiliqEkLe2HghCnh
1/KtFmyaQ3Qj0gGWO75/GIcfyjHt+CTUGcxwnDa1TJ7M+/M8t1YpgMbGky/7LWng
fyf6KtnRdV3f/524aauc7h1rBCtmTXGZGU6JyFAcHxMdHKggI8yjursrqS3aFgsQ
cL+Lh6PM2augJZci7tl98sbExooujW14XELdpJaYV8qlz3ZYNprgFdvzk3wp/kfF
D+d96kd2zXtsxsg1aYKeUo780ujfpOGS3B58619TRThDxUl71QJteTZ+jS6i0D5W
FVU/vUN5QetdzPSEM+a4H64mutgeL9dwhXM/h/lxr2b9BokwDr3Xj3B1wh1HONit
+ncs+3R5fyxR6o/DkbPIF8gHBtJMIbJnV9VOnPtRJFiTYwzaA++mY2MfdDOMmw4Q
ooCB4bBrcqTKOuA+I3A4ySk1qDMNgSj4Fco+tjNT8HJTKljeQfMyAmna0+4VYN9P
Aj4sGJnXa/gYEDLiJ/6QgKnVX1h8pui633zLEwwiM/B0JYfu6jqFcW0Xy3M38TmS
tvdKwvYMVExEC5xyQQkrEMOsb/7AMExjUCjeL4bowka2wChuuJVqYfX0e2kZJZ/B
coEF5FJefducvTg=
-----END CERTIFICATE-----
